target datalayout = "e-m:e-p270:32:32-p271:32:32-p272:64:64-i64:64-i128:128-f80:128-n8:16:32:64-S128"
target triple = "x86_64-pc-linux-gnu"

%struct.MemoizeState = type { %struct.ScanState, i32, i32, ptr, ptr, ptr, ptr, ptr, ptr, ptr, ptr, i64, i64, ptr, %struct.dlist_head, ptr, ptr, i8, i8, %struct.MemoizeInstrumentation, ptr, ptr }
%struct.ScanState = type { %struct.PlanState, ptr, ptr, ptr }
%struct.PlanState = type { i32, ptr, ptr, ptr, ptr, ptr, ptr, ptr, ptr, ptr, ptr, ptr, ptr, ptr, ptr, ptr, ptr, ptr, i8, ptr, ptr, ptr, ptr, ptr, i8, i8, i8, i8, i8, i8, i8, i8 }
%struct.dlist_head = type { %struct.dlist_node }
%struct.dlist_node = type { ptr, ptr }
%struct.MemoizeInstrumentation = type { i64, i64, i64, i64, i64 }
%struct.SharedMemoizeInfo = type { i32, [0 x %struct.MemoizeInstrumentation] }

@ParallelWorkerNumber = external global i32, align 4

; Function Attrs: nounwind uwtable
define dso_local void @ExecEndMemoize(ptr noundef %0) #0 {
  %2 = alloca ptr, align 8
  %3 = alloca ptr, align 8
  store ptr %0, ptr %2, align 8
  %4 = load ptr, ptr %2, align 8
  %5 = getelementptr inbounds nuw %struct.MemoizeState, ptr %4, i32 0, i32 20
  %6 = load ptr, ptr %5, align 8
  %7 = icmp ne ptr %6, null
  br i1 %7, label %8, label %35

8:                                                ; preds = %1
  %9 = load i32, ptr @ParallelWorkerNumber, align 4
  %10 = icmp sge i32 %9, 0
  br i1 %10, label %11, label %35

11:                                               ; preds = %8
  call void @llvm.lifetime.start.p0(i64 8, ptr %3) #9
  %12 = load ptr, ptr %2, align 8
  %13 = getelementptr inbounds nuw %struct.MemoizeState, ptr %12, i32 0, i32 19
  %14 = getelementptr inbounds nuw %struct.MemoizeInstrumentation, ptr %13, i32 0, i32 4
  %15 = load i64, ptr %14, align 8
  %16 = icmp eq i64 %15, 0
  br i1 %16, label %17, label %24

17:                                               ; preds = %11
  %18 = load ptr, ptr %2, align 8
  %19 = getelementptr inbounds nuw %struct.MemoizeState, ptr %18, i32 0, i32 11
  %20 = load i64, ptr %19, align 8
  %21 = load ptr, ptr %2, align 8
  %22 = getelementptr inbounds nuw %struct.MemoizeState, ptr %21, i32 0, i32 19
  %23 = getelementptr inbounds nuw %struct.MemoizeInstrumentation, ptr %22, i32 0, i32 4
  store i64 %20, ptr %23, align 8
  br label %24

24:                                               ; preds = %17, %11
  %25 = load ptr, ptr %2, align 8
  %26 = getelementptr inbounds nuw %struct.MemoizeState, ptr %25, i32 0, i32 20
  %27 = load ptr, ptr %26, align 8
  %28 = getelementptr inbounds nuw %struct.SharedMemoizeInfo, ptr %27, i32 0, i32 1
  %29 = load i32, ptr @ParallelWorkerNumber, align 4
  %30 = sext i32 %29 to i64
  %31 = getelementptr inbounds [0 x %struct.MemoizeInstrumentation], ptr %28, i64 0, i64 %30
  store ptr %31, ptr %3, align 8
  %32 = load ptr, ptr %3, align 8
  %33 = load ptr, ptr %2, align 8
  %34 = getelementptr inbounds nuw %struct.MemoizeState, ptr %33, i32 0, i32 19
  call void @llvm.memcpy.p0.p0.i64(ptr align 8 %32, ptr align 8 %34, i64 40, i1 false)
  call void @llvm.lifetime.end.p0(i64 8, ptr %3) #9
  br label %35

35:                                               ; preds = %24, %8, %1
  %36 = load ptr, ptr %2, align 8
  %37 = getelementptr inbounds nuw %struct.MemoizeState, ptr %36, i32 0, i32 13
  %38 = load ptr, ptr %37, align 8
  call void @MemoryContextDelete(ptr noundef %38)
  %39 = load ptr, ptr %2, align 8
  %40 = getelementptr inbounds nuw %struct.PlanState, ptr %39, i32 0, i32 9
  %41 = load ptr, ptr %40, align 8
  call void @ExecEndNode(ptr noundef %41)
  ret void
}