; Function Attrs: nounwind uwtable
define dso_local void @ExecEndMemoize(ptr noundef captures(none) %0) local_unnamed_addr #0 {
  %2 = getelementptr inbounds nuw i8, ptr %0, i64 400
  %3 = load ptr, ptr %2, align 8
  %4 = icmp ne ptr %3, null
  %5 = load i32, ptr @ParallelWorkerNumber, align 4
  %6 = icmp sgt i32 %5, -1
  %or.cond = select i1 %4, i1 %6, i1 false
  br i1 %or.cond, label %7, label %19

7:                                                ; preds = %1
  %8 = getelementptr inbounds nuw i8, ptr %0, i64 360
  %9 = getelementptr inbounds nuw i8, ptr %0, i64 392
  %10 = load i64, ptr %9, align 8
  %11 = icmp eq i64 %10, 0
  br i1 %11, label %12, label %15

12:                                               ; preds = %7
  %13 = getelementptr inbounds nuw i8, ptr %0, i64 296
  %14 = load i64, ptr %13, align 8
  store i64 %14, ptr %9, align 8
  br label %15

15:                                               ; preds = %12, %7
  %16 = getelementptr inbounds nuw i8, ptr %3, i64 8
  %17 = zext nneg i32 %5 to i64
  %18 = getelementptr inbounds nuw [0 x %struct.MemoizeInstrumentation], ptr %16, i64 0, i64 %17
  tail call void @llvm.memcpy.p0.p0.i64(ptr noundef nonnull align 8 dereferenceable(40) %18, ptr noundef nonnull align 8 dereferenceable(40) %8, i64 40, i1 false)
  br label %19

19:                                               ; preds = %15, %1
  %20 = getelementptr inbounds nuw i8, ptr %0, i64 312
  %21 = load ptr, ptr %20, align 8
  tail call void @MemoryContextDelete(ptr noundef %21) #11
  %22 = getelementptr inbounds nuw i8, ptr %0, i64 72
  %23 = load ptr, ptr %22, align 8
  tail call void @ExecEndNode(ptr noundef %23) #11
  ret void
}